; Function Attrs: mustprogress uwtable
define void @ubiditransform_close_77(ptr noundef %0) local_unnamed_addr #0 {
  %.not = icmp eq ptr %0, null
  br i1 %.not, label %10, label %2

2:                                                ; preds = %1
  %3 = load ptr, ptr %0, align 8, !tbaa !7
  %.not8 = icmp eq ptr %3, null
  br i1 %.not8, label %5, label %4

4:                                                ; preds = %2
  tail call void @ubidi_close_77(ptr noundef nonnull %3)
  br label %5

5:                                                ; preds = %4, %2
  %6 = getelementptr inbounds nuw i8, ptr %0, i64 16
  %7 = load ptr, ptr %6, align 8, !tbaa !14
  %.not9 = icmp eq ptr %7, null
  br i1 %.not9, label %9, label %8

8:                                                ; preds = %5
  tail call void @uprv_free_77(ptr noundef nonnull %7)
  br label %9

9:                                                ; preds = %8, %5
  tail call void @uprv_free_77(ptr noundef nonnull %0)
  br label %10

10:                                               ; preds = %9, %1
  ret void
}